target datalayout = "e-m:e-p270:32:32-p271:32:32-p272:64:64-i64:64-i128:128-f80:128-n8:16:32:64-S128"
target triple = "x86_64-pc-linux-gnu"

%struct.Cnf_Man_t_ = type { ptr, ptr, ptr, i32, ptr, i32, [4 x ptr], ptr, i64, i64, i64 }
%struct.Cnf_Cut_t_ = type { i8, i8, i16, [2 x ptr], [0 x i32] }
%struct.Dar_Cut_t_ = type { i32, i32, [4 x i32] }
%struct.Aig_Obj_t_ = type { %union.anon, ptr, ptr, i64, i32, i32, %union.anon.0 }
%union.anon = type { ptr }
%union.anon.0 = type { ptr }

; Function Attrs: inlinehint nounwind uwtable
define internal i32 @Abc_TruthWordNum(i32 noundef %0) #2 {
  %2 = alloca i32, align 4
  store i32 %0, ptr %2, align 4, !tbaa !8
  %3 = load i32, ptr %2, align 4, !tbaa !8
  %4 = icmp sle i32 %3, 5
  br i1 %4, label %5, label %6

5:                                                ; preds = %1
  br label %10

6:                                                ; preds = %1
  %7 = load i32, ptr %2, align 4, !tbaa !8
  %8 = sub nsw i32 %7, 5
  %9 = shl i32 1, %8
  br label %10

10:                                               ; preds = %6, %5
  %11 = phi i32 [ 1, %5 ], [ %9, %6 ]
  ret i32 %11
}

; Function Attrs: inlinehint nounwind uwtable
define internal ptr @Dar_ObjCuts(ptr noundef %0) #2 {
  %2 = alloca ptr, align 8
  store ptr %0, ptr %2, align 8, !tbaa !28
  %3 = load ptr, ptr %2, align 8, !tbaa !28
  %4 = getelementptr inbounds nuw %struct.Aig_Obj_t_, ptr %3, i32 0, i32 6
  %5 = load ptr, ptr %4, align 8, !tbaa !37
  ret ptr %5
}

; Function Attrs: inlinehint nounwind uwtable
define internal i32 @Cnf_CutSopCost(ptr noundef %0, ptr noundef %1) #2 {
  %3 = alloca ptr, align 8
  %4 = alloca ptr, align 8
  store ptr %0, ptr %3, align 8, !tbaa !3
  store ptr %1, ptr %4, align 8, !tbaa !30
  %5 = load ptr, ptr %3, align 8, !tbaa !3
  %6 = getelementptr inbounds nuw %struct.Cnf_Man_t_, ptr %5, i32 0, i32 1
  %7 = load ptr, ptr %6, align 8, !tbaa !36
  %8 = load ptr, ptr %4, align 8, !tbaa !30
  %9 = getelementptr inbounds nuw %struct.Dar_Cut_t_, ptr %8, i32 0, i32 1
  %10 = load i32, ptr %9, align 4
  %11 = and i32 %10, 65535
  %12 = zext i32 %11 to i64
  %13 = getelementptr inbounds nuw i8, ptr %7, i64 %12
  %14 = load i8, ptr %13, align 1, !tbaa !37
  %15 = sext i8 %14 to i32
  %16 = load ptr, ptr %3, align 8, !tbaa !3
  %17 = getelementptr inbounds nuw %struct.Cnf_Man_t_, ptr %16, i32 0, i32 1
  %18 = load ptr, ptr %17, align 8, !tbaa !36
  %19 = load ptr, ptr %4, align 8, !tbaa !30
  %20 = getelementptr inbounds nuw %struct.Dar_Cut_t_, ptr %19, i32 0, i32 1
  %21 = load i32, ptr %20, align 4
  %22 = and i32 %21, 65535
  %23 = xor i32 %22, -1
  %24 = and i32 65535, %23
  %25 = sext i32 %24 to i64
  %26 = getelementptr inbounds i8, ptr %18, i64 %25
  %27 = load i8, ptr %26, align 1, !tbaa !37
  %28 = sext i8 %27 to i32
  %29 = add nsw i32 %15, %28
  ret i32 %29
}

; Function Attrs: inlinehint nounwind uwtable
define internal ptr @Cnf_CutTruth(ptr noundef %0) #2 {
  %2 = alloca ptr, align 8
  store ptr %0, ptr %2, align 8, !tbaa !18
  %3 = load ptr, ptr %2, align 8, !tbaa !18
  %4 = getelementptr inbounds nuw %struct.Cnf_Cut_t_, ptr %3, i32 0, i32 4
  %5 = getelementptr inbounds [0 x i32], ptr %4, i64 0, i64 0
  %6 = load ptr, ptr %2, align 8, !tbaa !18
  %7 = getelementptr inbounds nuw %struct.Cnf_Cut_t_, ptr %6, i32 0, i32 0
  %8 = load i8, ptr %7, align 8, !tbaa !20
  %9 = sext i8 %8 to i32
  %10 = sext i32 %9 to i64
  %11 = getelementptr inbounds i32, ptr %5, i64 %10
  ret ptr %11
}

; Function Attrs: nounwind uwtable
define ptr @Cnf_CutAlloc(ptr noundef %0, i32 noundef %1) #0 {
  %3 = alloca ptr, align 8
  %4 = alloca i32, align 4
  %5 = alloca ptr, align 8
  %6 = alloca i32, align 4
  store ptr %0, ptr %3, align 8, !tbaa !3
  store i32 %1, ptr %4, align 4, !tbaa !8
  call void @llvm.lifetime.start.p0(i64 8, ptr %5) #7
  call void @llvm.lifetime.start.p0(i64 4, ptr %6) #7
  %7 = load i32, ptr %4, align 4, !tbaa !8
  %8 = sext i32 %7 to i64
  %9 = mul i64 4, %8
  %10 = add i64 24, %9
  %11 = load i32, ptr %4, align 4, !tbaa !8
  %12 = call i32 @Abc_TruthWordNum(i32 noundef %11)
  %13 = sext i32 %12 to i64
  %14 = mul i64 4, %13
  %15 = add i64 %10, %14
  %16 = trunc i64 %15 to i32
  store i32 %16, ptr %6, align 4, !tbaa !8
  %17 = load ptr, ptr %3, align 8, !tbaa !3
  %18 = getelementptr inbounds nuw %struct.Cnf_Man_t_, ptr %17, i32 0, i32 4
  %19 = load ptr, ptr %18, align 8, !tbaa !10
  %20 = load i32, ptr %6, align 4, !tbaa !8
  %21 = call ptr @Aig_MmFlexEntryFetch(ptr noundef %19, i32 noundef %20)
  store ptr %21, ptr %5, align 8, !tbaa !18
  %22 = load i32, ptr %4, align 4, !tbaa !8
  %23 = trunc i32 %22 to i8
  %24 = load ptr, ptr %5, align 8, !tbaa !18
  %25 = getelementptr inbounds nuw %struct.Cnf_Cut_t_, ptr %24, i32 0, i32 0
  store i8 %23, ptr %25, align 8, !tbaa !20
  %26 = load i32, ptr %4, align 4, !tbaa !8
  %27 = call i32 @Abc_TruthWordNum(i32 noundef %26)
  %28 = trunc i32 %27 to i16
  %29 = load ptr, ptr %5, align 8, !tbaa !18
  %30 = getelementptr inbounds nuw %struct.Cnf_Cut_t_, ptr %29, i32 0, i32 2
  store i16 %28, ptr %30, align 2, !tbaa !23
  %31 = load ptr, ptr %5, align 8, !tbaa !18
  %32 = getelementptr inbounds nuw %struct.Cnf_Cut_t_, ptr %31, i32 0, i32 3
  %33 = getelementptr inbounds [2 x ptr], ptr %32, i64 0, i64 1
  store ptr null, ptr %33, align 8, !tbaa !24
  %34 = load ptr, ptr %5, align 8, !tbaa !18
  %35 = getelementptr inbounds nuw %struct.Cnf_Cut_t_, ptr %34, i32 0, i32 3
  %36 = getelementptr inbounds [2 x ptr], ptr %35, i64 0, i64 0
  store ptr null, ptr %36, align 8, !tbaa !24
  %37 = load ptr, ptr %5, align 8, !tbaa !18
  call void @llvm.lifetime.end.p0(i64 4, ptr %6) #7
  call void @llvm.lifetime.end.p0(i64 8, ptr %5) #7
  ret ptr %37
}

; Function Attrs: inlinehint nounwind uwtable
define internal ptr @Dar_ObjBestCut(ptr noundef %0) #2 {
  %2 = alloca ptr, align 8
  %3 = alloca ptr, align 8
  %4 = alloca ptr, align 8
  %5 = alloca i32, align 4
  %6 = alloca i32, align 4
  store ptr %0, ptr %3, align 8, !tbaa !28
  call void @llvm.lifetime.start.p0(i64 8, ptr %4) #7
  call void @llvm.lifetime.start.p0(i64 4, ptr %5) #7
  %7 = load ptr, ptr %3, align 8, !tbaa !28
  %8 = call ptr @Dar_ObjCuts(ptr noundef %7)
  store ptr %8, ptr %4, align 8, !tbaa !30
  store i32 0, ptr %5, align 4, !tbaa !8
  br label %9

9:                                                ; preds = %36, %1
  %10 = load i32, ptr %5, align 4, !tbaa !8
  %11 = load ptr, ptr %3, align 8, !tbaa !28
  %12 = getelementptr inbounds nuw %struct.Aig_Obj_t_, ptr %11, i32 0, i32 3
  %13 = load i64, ptr %12, align 8
  %14 = lshr i64 %13, 56
  %15 = trunc i64 %14 to i32
  %16 = icmp slt i32 %10, %15
  br i1 %16, label %17, label %41

17:                                               ; preds = %9
  %18 = load ptr, ptr %4, align 8, !tbaa !30
  %19 = getelementptr inbounds nuw %struct.Dar_Cut_t_, ptr %18, i32 0, i32 1
  %20 = load i32, ptr %19, align 4
  %21 = lshr i32 %20, 28
  %22 = and i32 %21, 1
  %23 = icmp eq i32 %22, 0
  br i1 %23, label %24, label %25

24:                                               ; preds = %17
  br label %35

25:                                               ; preds = %17
  %26 = load ptr, ptr %4, align 8, !tbaa !30
  %27 = getelementptr inbounds nuw %struct.Dar_Cut_t_, ptr %26, i32 0, i32 1
  %28 = load i32, ptr %27, align 4
  %29 = lshr i32 %28, 27
  %30 = and i32 %29, 1
  %31 = icmp ne i32 %30, 0
  br i1 %31, label %32, label %34

32:                                               ; preds = %25
  %33 = load ptr, ptr %4, align 8, !tbaa !30
  store ptr %33, ptr %2, align 8
  store i32 1, ptr %6, align 4
  br label %42

34:                                               ; preds = %25
  br label %35

35:                                               ; preds = %34, %24
  br label %36

36:                                               ; preds = %35
  %37 = load i32, ptr %5, align 4, !tbaa !8
  %38 = add nsw i32 %37, 1
  store i32 %38, ptr %5, align 4, !tbaa !8
  %39 = load ptr, ptr %4, align 8, !tbaa !30
  %40 = getelementptr inbounds nuw %struct.Dar_Cut_t_, ptr %39, i32 1
  store ptr %40, ptr %4, align 8, !tbaa !30
  br label %9, !llvm.loop !34

41:                                               ; preds = %9
  store ptr null, ptr %2, align 8
  store i32 1, ptr %6, align 4
  br label %42

42:                                               ; preds = %41, %32
  call void @llvm.lifetime.end.p0(i64 4, ptr %5) #7
  call void @llvm.lifetime.end.p0(i64 8, ptr %4) #7
  %43 = load ptr, ptr %2, align 8
  ret ptr %43
}

; Function Attrs: nounwind uwtable
define ptr @Cnf_CutCreate(ptr noundef %0, ptr noundef %1) #0 {
  %3 = alloca ptr, align 8
  %4 = alloca ptr, align 8
  %5 = alloca ptr, align 8
  %6 = alloca ptr, align 8
  %7 = alloca ptr, align 8
  store ptr %0, ptr %3, align 8, !tbaa !3
  store ptr %1, ptr %4, align 8, !tbaa !28
  call void @llvm.lifetime.start.p0(i64 8, ptr %5) #7
  call void @llvm.lifetime.start.p0(i64 8, ptr %6) #7
  call void @llvm.lifetime.start.p0(i64 8, ptr %7) #7
  %8 = load ptr, ptr %4, align 8, !tbaa !28
  %9 = call ptr @Dar_ObjBestCut(ptr noundef %8)
  store ptr %9, ptr %5, align 8, !tbaa !30
  %10 = load ptr, ptr %3, align 8, !tbaa !3
  %11 = load ptr, ptr %5, align 8, !tbaa !30
  %12 = getelementptr inbounds nuw %struct.Dar_Cut_t_, ptr %11, i32 0, i32 1
  %13 = load i32, ptr %12, align 4
  %14 = lshr i32 %13, 29
  %15 = call ptr @Cnf_CutAlloc(ptr noundef %10, i32 noundef %14)
  store ptr %15, ptr %6, align 8, !tbaa !18
  %16 = load ptr, ptr %6, align 8, !tbaa !18
  %17 = getelementptr inbounds nuw %struct.Cnf_Cut_t_, ptr %16, i32 0, i32 4
  %18 = getelementptr inbounds [0 x i32], ptr %17, i64 0, i64 0
  %19 = load ptr, ptr %5, align 8, !tbaa !30
  %20 = getelementptr inbounds nuw %struct.Dar_Cut_t_, ptr %19, i32 0, i32 2
  %21 = getelementptr inbounds [4 x i32], ptr %20, i64 0, i64 0
  %22 = load ptr, ptr %5, align 8, !tbaa !30
  %23 = getelementptr inbounds nuw %struct.Dar_Cut_t_, ptr %22, i32 0, i32 1
  %24 = load i32, ptr %23, align 4
  %25 = lshr i32 %24, 29
  %26 = zext i32 %25 to i64
  %27 = mul i64 4, %26
  call void @llvm.memcpy.p0.p0.i64(ptr align 8 %18, ptr align 4 %21, i64 %27, i1 false)
  %28 = load ptr, ptr %6, align 8, !tbaa !18
  %29 = call ptr @Cnf_CutTruth(ptr noundef %28)
  store ptr %29, ptr %7, align 8, !tbaa !32
  %30 = load ptr, ptr %5, align 8, !tbaa !30
  %31 = getelementptr inbounds nuw %struct.Dar_Cut_t_, ptr %30, i32 0, i32 1
  %32 = load i32, ptr %31, align 4
  %33 = and i32 %32, 65535
  %34 = shl i32 %33, 16
  %35 = load ptr, ptr %5, align 8, !tbaa !30
  %36 = getelementptr inbounds nuw %struct.Dar_Cut_t_, ptr %35, i32 0, i32 1
  %37 = load i32, ptr %36, align 4
  %38 = and i32 %37, 65535
  %39 = or i32 %34, %38
  %40 = load ptr, ptr %7, align 8, !tbaa !32
  store i32 %39, ptr %40, align 4, !tbaa !8
  %41 = load ptr, ptr %3, align 8, !tbaa !3
  %42 = load ptr, ptr %5, align 8, !tbaa !30
  %43 = call i32 @Cnf_CutSopCost(ptr noundef %41, ptr noundef %42)
  %44 = trunc i32 %43 to i8
  %45 = load ptr, ptr %6, align 8, !tbaa !18
  %46 = getelementptr inbounds nuw %struct.Cnf_Cut_t_, ptr %45, i32 0, i32 1
  store i8 %44, ptr %46, align 1, !tbaa !33
  %47 = load ptr, ptr %6, align 8, !tbaa !18
  call void @llvm.lifetime.end.p0(i64 8, ptr %7) #7
  call void @llvm.lifetime.end.p0(i64 8, ptr %6) #7
  call void @llvm.lifetime.end.p0(i64 8, ptr %5) #7
  ret ptr %47
}