; Function Attrs: nounwind uwtable
define noundef ptr @Cnf_CutCreate(ptr noundef readonly captures(none) %0, ptr noundef readonly captures(none) %1) local_unnamed_addr #0 {
  %3 = getelementptr inbounds nuw i8, ptr %1, i64 24
  %4 = load i64, ptr %3, align 8
  %5 = lshr i64 %4, 56
  %6 = trunc nuw nsw i64 %5 to i32
  %.not.i = icmp ult i64 %4, 72057594037927936
  br i1 %.not.i, label %Dar_ObjBestCut.exit, label %.lr.ph.preheader.i

.lr.ph.preheader.i:                               ; preds = %2
  %7 = getelementptr i8, ptr %1, i64 40
  %.val.i = load ptr, ptr %7, align 8, !tbaa !23
  br label %.lr.ph.i

.lr.ph.i:                                         ; preds = %11, %.lr.ph.preheader.i
  %.011.i = phi i32 [ %12, %11 ], [ 0, %.lr.ph.preheader.i ]
  %.0810.i = phi ptr [ %13, %11 ], [ %.val.i, %.lr.ph.preheader.i ]
  %8 = getelementptr inbounds nuw i8, ptr %.0810.i, i64 4
  %9 = load i32, ptr %8, align 4
  %10 = and i32 %9, 402653184
  %or.cond.not.i = icmp eq i32 %10, 402653184
  br i1 %or.cond.not.i, label %Dar_ObjBestCut.exit, label %11

11:                                               ; preds = %.lr.ph.i
  %12 = add nuw nsw i32 %.011.i, 1
  %13 = getelementptr inbounds nuw i8, ptr %.0810.i, i64 24
  %exitcond.not.i = icmp eq i32 %12, %6
  br i1 %exitcond.not.i, label %Dar_ObjBestCut.exit, label %.lr.ph.i, !llvm.loop !24

Dar_ObjBestCut.exit:                              ; preds = %.lr.ph.i, %11, %2
  %.09.i = phi ptr [ null, %2 ], [ %.0810.i, %.lr.ph.i ], [ null, %11 ]
  %14 = getelementptr inbounds nuw i8, ptr %.09.i, i64 4
  %15 = load i32, ptr %14, align 4
  %16 = lshr i32 %15, 29
  %17 = icmp ult i32 %15, -1073741824
  %18 = add nsw i32 %16, -5
  %19 = shl nuw nsw i32 1, %18
  %20 = select i1 %17, i32 1, i32 %19
  %21 = add nuw nsw i32 %20, %16
  %22 = shl i32 %21, 2
  %23 = add i32 %22, 24
  %24 = getelementptr inbounds nuw i8, ptr %0, i64 32
  %25 = load ptr, ptr %24, align 8, !tbaa !3
  %26 = tail call ptr @Aig_MmFlexEntryFetch(ptr noundef %25, i32 noundef %23) #12
  %27 = trunc nuw nsw i32 %16 to i8
  store i8 %27, ptr %26, align 8, !tbaa !15
  %28 = trunc i32 %20 to i16
  %29 = getelementptr inbounds nuw i8, ptr %26, i64 2
  store i16 %28, ptr %29, align 2, !tbaa !18
  %30 = getelementptr inbounds nuw i8, ptr %26, i64 8
  tail call void @llvm.memset.p0.i64(ptr noundef nonnull align 8 dereferenceable(16) %30, i8 0, i64 16, i1 false)
  %31 = getelementptr inbounds nuw i8, ptr %26, i64 24
  %32 = getelementptr inbounds nuw i8, ptr %.09.i, i64 8
  %33 = load i32, ptr %14, align 4
  %34 = lshr i32 %33, 27
  %35 = and i32 %34, 28
  %36 = zext nneg i32 %35 to i64
  tail call void @llvm.memcpy.p0.p0.i64(ptr nonnull align 8 %31, ptr nonnull align 4 %32, i64 %36, i1 false)
  %37 = zext nneg i32 %16 to i64
  %38 = getelementptr inbounds nuw i32, ptr %31, i64 %37
  %39 = load i32, ptr %14, align 4
  %40 = and i32 %39, 65535
  %41 = mul nuw i32 %40, 65537
  store i32 %41, ptr %38, align 4, !tbaa !26
  %42 = getelementptr i8, ptr %0, i64 8
  %.val = load ptr, ptr %42, align 8, !tbaa !27
  %.val14 = load i32, ptr %14, align 4
  %43 = and i32 %.val14, 65535
  %44 = zext nneg i32 %43 to i64
  %45 = getelementptr inbounds nuw i8, ptr %.val, i64 %44
  %46 = load i8, ptr %45, align 1, !tbaa !23
  %47 = xor i32 %43, 65535
  %48 = zext nneg i32 %47 to i64
  %49 = getelementptr inbounds nuw i8, ptr %.val, i64 %48
  %50 = load i8, ptr %49, align 1, !tbaa !23
  %51 = add i8 %50, %46
  %52 = getelementptr inbounds nuw i8, ptr %26, i64 1
  store i8 %51, ptr %52, align 1, !tbaa !28
  ret ptr %26
}